target datalayout = "e-m:e-p270:32:32-p271:32:32-p272:64:64-i64:64-i128:128-f80:128-n8:16:32:64-S128"
target triple = "x86_64-pc-linux-gnu"

%"struct.ZRemembered::FoundOld" = type <{ %class.CHeapBitMap, %class.CHeapBitMap, [2 x ptr], i32, [4 x i8] }>
%class.CHeapBitMap = type <{ %class.GrowableBitMap, i8, [7 x i8] }>
%class.GrowableBitMap = type { %class.BitMap }
%class.BitMap = type { ptr, i64 }

@ZAddressOffsetMax = external global i64, align 8

; Function Attrs: mustprogress nounwind uwtable
define hidden void @_ZN11ZRemembered8FoundOldC2Ev(ptr noundef nonnull align 8 dereferenceable(68) %0) unnamed_addr #1 align 2 {
  %2 = alloca ptr, align 8
  store ptr %0, ptr %2, align 8
  %3 = load ptr, ptr %2, align 8
  %4 = getelementptr inbounds %"struct.ZRemembered::FoundOld", ptr %3, i32 0, i32 0
  %5 = load i64, ptr @ZAddressOffsetMax, align 8
  %6 = lshr i64 %5, 21
  call void @_ZN11CHeapBitMapC1Em8MEMFLAGSb(ptr noundef nonnull align 8 dereferenceable(17) %4, i64 noundef %6, i8 noundef zeroext 5, i1 noundef zeroext true)
  %7 = getelementptr inbounds %"struct.ZRemembered::FoundOld", ptr %3, i32 0, i32 1
  %8 = load i64, ptr @ZAddressOffsetMax, align 8
  %9 = lshr i64 %8, 21
  call void @_ZN11CHeapBitMapC1Em8MEMFLAGSb(ptr noundef nonnull align 8 dereferenceable(17) %7, i64 noundef %9, i8 noundef zeroext 5, i1 noundef zeroext true)
  %10 = getelementptr inbounds %"struct.ZRemembered::FoundOld", ptr %3, i32 0, i32 2
  %11 = getelementptr inbounds %"struct.ZRemembered::FoundOld", ptr %3, i32 0, i32 0
  store ptr %11, ptr %10, align 8
  %12 = getelementptr inbounds ptr, ptr %10, i64 1
  %13 = getelementptr inbounds %"struct.ZRemembered::FoundOld", ptr %3, i32 0, i32 1
  store ptr %13, ptr %12, align 8
  %14 = getelementptr inbounds %"struct.ZRemembered::FoundOld", ptr %3, i32 0, i32 3
  store i32 0, ptr %14, align 8
  ret void
}