; Function Attrs: mustprogress nounwind uwtable
define hidden void @_ZN11ZRemembered8FoundOldC2Ev(ptr noundef nonnull align 8 dereferenceable(68) %0) unnamed_addr #0 align 2 {
  %2 = load i64, ptr @ZAddressOffsetMax, align 8
  %3 = lshr i64 %2, 21
  tail call void @_ZN11CHeapBitMapC1Em8MEMFLAGSb(ptr noundef nonnull align 8 dereferenceable(17) %0, i64 noundef %3, i8 noundef zeroext 5, i1 noundef zeroext true) #13
  %4 = getelementptr inbounds i8, ptr %0, i64 24
  %5 = load i64, ptr @ZAddressOffsetMax, align 8
  %6 = lshr i64 %5, 21
  tail call void @_ZN11CHeapBitMapC1Em8MEMFLAGSb(ptr noundef nonnull align 8 dereferenceable(17) %4, i64 noundef %6, i8 noundef zeroext 5, i1 noundef zeroext true) #13
  %7 = getelementptr inbounds i8, ptr %0, i64 48
  store ptr %0, ptr %7, align 8
  %8 = getelementptr inbounds i8, ptr %0, i64 56
  store ptr %4, ptr %8, align 8
  %9 = getelementptr inbounds i8, ptr %0, i64 64
  store i32 0, ptr %9, align 8
  ret void
}